; Function Attrs: nounwind uwtable
define hidden void @Curl_trc_cf_infof(ptr noundef %0, ptr noundef readonly %1, ptr noundef %2, ...) local_unnamed_addr #0 {
  %4 = alloca [1 x %struct.__va_list_tag], align 16
  %5 = alloca [2050 x i8], align 16
  %.not = icmp eq ptr %0, null
  br i1 %.not, label %57, label %6

6:                                                ; preds = %3
  %7 = getelementptr inbounds nuw i8, ptr %0, i64 2658
  %8 = load i64, ptr %7, align 2
  %9 = and i64 %8, 2147483648
  %.not33 = icmp eq i64 %9, 0
  br i1 %.not33, label %57, label %10

10:                                               ; preds = %6
  %11 = getelementptr inbounds nuw i8, ptr %0, i64 4864
  %12 = load ptr, ptr %11, align 8, !tbaa !79
  %.not34 = icmp eq ptr %12, null
  br i1 %.not34, label %18, label %13

13:                                               ; preds = %10
  %14 = getelementptr inbounds nuw i8, ptr %12, i64 8
  %15 = load i32, ptr %14, align 8, !tbaa !80
  %16 = icmp sgt i32 %15, 0
  %17 = icmp ne ptr %1, null
  %or.cond = and i1 %17, %16
  br i1 %or.cond, label %.thread, label %57

18:                                               ; preds = %10
  %.old1.not = icmp eq ptr %1, null
  br i1 %.old1.not, label %57, label %19

19:                                               ; preds = %18
  %20 = load ptr, ptr %1, align 8, !tbaa !83
  %21 = getelementptr inbounds nuw i8, ptr %20, i64 12
  %22 = load i32, ptr %21, align 4, !tbaa !87
  %23 = icmp sgt i32 %22, 0
  br i1 %23, label %28, label %57

.thread:                                          ; preds = %13
  %24 = load ptr, ptr %1, align 8, !tbaa !83
  %25 = getelementptr inbounds nuw i8, ptr %24, i64 12
  %26 = load i32, ptr %25, align 4, !tbaa !87
  %27 = icmp sgt i32 %26, 0
  br i1 %27, label %29, label %57

28:                                               ; preds = %19
  call void @llvm.lifetime.start.p0(i64 24, ptr nonnull %4) #8
  call void @llvm.lifetime.start.p0(i64 2050, ptr nonnull %5) #8
  br label %32

29:                                               ; preds = %.thread
  call void @llvm.lifetime.start.p0(i64 24, ptr nonnull %4) #8
  call void @llvm.lifetime.start.p0(i64 2050, ptr nonnull %5) #8
  %30 = load ptr, ptr %12, align 8, !tbaa !82
  %31 = call i32 (ptr, i64, ptr, ...) @curl_msnprintf(ptr noundef nonnull %5, i64 noundef 2048, ptr noundef nonnull @.str, ptr noundef %30) #8
  br label %32

32:                                               ; preds = %28, %29
  %.0 = phi i32 [ %31, %29 ], [ 0, %28 ]
  %33 = getelementptr inbounds nuw i8, ptr %1, i64 32
  %34 = load i32, ptr %33, align 8, !tbaa !89
  %.not36 = icmp eq i32 %34, 0
  %35 = sext i32 %.0 to i64
  %36 = getelementptr inbounds i8, ptr %5, i64 %35
  %37 = sub nsw i32 2048, %.0
  %38 = sext i32 %37 to i64
  %39 = load ptr, ptr %1, align 8, !tbaa !83
  %40 = load ptr, ptr %39, align 8, !tbaa !90
  br i1 %.not36, label %43, label %41

41:                                               ; preds = %32
  %42 = call i32 (ptr, i64, ptr, ...) @curl_msnprintf(ptr noundef nonnull %36, i64 noundef %38, ptr noundef nonnull @.str.1, ptr noundef %40, i32 noundef %34) #8
  br label %45

43:                                               ; preds = %32
  %44 = call i32 (ptr, i64, ptr, ...) @curl_msnprintf(ptr noundef nonnull %36, i64 noundef %38, ptr noundef nonnull @.str, ptr noundef %40) #8
  br label %45

45:                                               ; preds = %43, %41
  %.pn = phi i32 [ %42, %41 ], [ %44, %43 ]
  %.1 = add nsw i32 %.pn, %.0
  call void @llvm.va_start.p0(ptr nonnull %4)
  %46 = sext i32 %.1 to i64
  %47 = getelementptr inbounds i8, ptr %5, i64 %46
  %48 = sub nsw i32 2048, %.1
  %49 = sext i32 %48 to i64
  %50 = call i32 @curl_mvsnprintf(ptr noundef nonnull %47, i64 noundef %49, ptr noundef %2, ptr noundef nonnull %4) #8
  %51 = add nsw i32 %50, %.1
  call void @llvm.va_end.p0(ptr nonnull %4)
  %52 = add nsw i32 %51, 1
  %53 = sext i32 %51 to i64
  %54 = getelementptr inbounds [2050 x i8], ptr %5, i64 0, i64 %53
  store i8 10, ptr %54, align 1, !tbaa !78
  %55 = sext i32 %52 to i64
  %56 = getelementptr inbounds [2050 x i8], ptr %5, i64 0, i64 %55
  store i8 0, ptr %56, align 1, !tbaa !78
  call void @Curl_debug(ptr noundef nonnull %0, i32 noundef 0, ptr noundef nonnull %5, i64 noundef %55)
  call void @llvm.lifetime.end.p0(i64 2050, ptr nonnull %5) #8
  call void @llvm.lifetime.end.p0(i64 24, ptr nonnull %4) #8
  br label %57

57:                                               ; preds = %.thread, %45, %19, %18, %13, %6, %3
  ret void
}